; ModuleID = '63/1302.c'
source_filename = "63/1302.c"
target datalayout = "e-m:e-p270:32:32-p271:32:32-p272:64:64-i64:64-f80:128-n8:16:32:64-S128"
target triple = "x86_64-pc-linux-gnu"

@.str = private unnamed_addr constant [6 x i8] c"%d %d\00", align 1
@.str.1 = private unnamed_addr constant [3 x i8] c"%d\00", align 1
@.str.2 = private unnamed_addr constant [4 x i8] c"%d \00", align 1
@.str.3 = private unnamed_addr constant [4 x i8] c"%d\0A\00", align 1

; Function Attrs: noinline nounwind uwtable
define dso_local i32 @main() #0 {
  %1 = alloca i32, align 4
  %2 = alloca i32, align 4
  %3 = alloca i32, align 4
  %4 = alloca i32, align 4
  %5 = alloca i32, align 4
  %6 = alloca i32, align 4
  %7 = alloca i32, align 4
  %8 = alloca i32, align 4
  %9 = alloca [100 x [100 x i32]], align 16
  %10 = alloca [100 x [100 x i32]], align 16
  %11 = alloca [100 x [100 x i32]], align 16
  store i32 0, i32* %1, align 4
  %12 = bitcast [100 x [100 x i32]]* %11 to i8*
  call void @llvm.memset.p0i8.i64(i8* align 16 %12, i8 0, i64 40000, i1 false)
  %13 = call i32 (i8*, ...) @__isoc99_scanf(i8* getelementptr inbounds ([6 x i8], [6 x i8]* @.str, i64 0, i64 0), i32* %2, i32* %4)
  store i32 0, i32* %6, align 4
  br label %14

14:                                               ; preds = %35, %0
  %15 = load i32, i32* %6, align 4
  %16 = load i32, i32* %2, align 4
  %17 = icmp slt i32 %15, %16
  br i1 %17, label %18, label %38

18:                                               ; preds = %14
  store i32 0, i32* %7, align 4
  br label %19

19:                                               ; preds = %31, %18
  %20 = load i32, i32* %7, align 4
  %21 = load i32, i32* %4, align 4
  %22 = icmp slt i32 %20, %21
  br i1 %22, label %23, label %34

23:                                               ; preds = %19
  %24 = load i32, i32* %6, align 4
  %25 = sext i32 %24 to i64
  %26 = getelementptr inbounds [100 x [100 x i32]], [100 x [100 x i32]]* %9, i64 0, i64 %25
  %27 = load i32, i32* %7, align 4
  %28 = sext i32 %27 to i64
  %29 = getelementptr inbounds [100 x i32], [100 x i32]* %26, i64 0, i64 %28
  %30 = call i32 (i8*, ...) @__isoc99_scanf(i8* getelementptr inbounds ([3 x i8], [3 x i8]* @.str.1, i64 0, i64 0), i32* %29)
  br label %31

31:                                               ; preds = %23
  %32 = load i32, i32* %7, align 4
  %33 = add nsw i32 %32, 1
  store i32 %33, i32* %7, align 4
  br label %19

34:                                               ; preds = %19
  br label %35

35:                                               ; preds = %34
  %36 = load i32, i32* %6, align 4
  %37 = add nsw i32 %36, 1
  store i32 %37, i32* %6, align 4
  br label %14

38:                                               ; preds = %14
  %39 = call i32 (i8*, ...) @__isoc99_scanf(i8* getelementptr inbounds ([6 x i8], [6 x i8]* @.str, i64 0, i64 0), i32* %3, i32* %5)
  store i32 0, i32* %6, align 4
  br label %40

40:                                               ; preds = %61, %38
  %41 = load i32, i32* %6, align 4
  %42 = load i32, i32* %3, align 4
  %43 = icmp slt i32 %41, %42
  br i1 %43, label %44, label %64

44:                                               ; preds = %40
  store i32 0, i32* %7, align 4
  br label %45

45:                                               ; preds = %57, %44
  %46 = load i32, i32* %7, align 4
  %47 = load i32, i32* %5, align 4
  %48 = icmp slt i32 %46, %47
  br i1 %48, label %49, label %60

49:                                               ; preds = %45
  %50 = load i32, i32* %6, align 4
  %51 = sext i32 %50 to i64
  %52 = getelementptr inbounds [100 x [100 x i32]], [100 x [100 x i32]]* %10, i64 0, i64 %51
  %53 = load i32, i32* %7, align 4
  %54 = sext i32 %53 to i64
  %55 = getelementptr inbounds [100 x i32], [100 x i32]* %52, i64 0, i64 %54
  %56 = call i32 (i8*, ...) @__isoc99_scanf(i8* getelementptr inbounds ([3 x i8], [3 x i8]* @.str.1, i64 0, i64 0), i32* %55)
  br label %57

57:                                               ; preds = %49
  %58 = load i32, i32* %7, align 4
  %59 = add nsw i32 %58, 1
  store i32 %59, i32* %7, align 4
  br label %45

60:                                               ; preds = %45
  br label %61

61:                                               ; preds = %60
  %62 = load i32, i32* %6, align 4
  %63 = add nsw i32 %62, 1
  store i32 %63, i32* %6, align 4
  br label %40

64:                                               ; preds = %40
  store i32 0, i32* %6, align 4
  br label %65

65:                                               ; preds = %111, %64
  %66 = load i32, i32* %6, align 4
  %67 = load i32, i32* %2, align 4
  %68 = icmp slt i32 %66, %67
  br i1 %68, label %69, label %114

69:                                               ; preds = %65
  store i32 0, i32* %7, align 4
  br label %70

70:                                               ; preds = %107, %69
  %71 = load i32, i32* %7, align 4
  %72 = load i32, i32* %5, align 4
  %73 = icmp slt i32 %71, %72
  br i1 %73, label %74, label %110

74:                                               ; preds = %70
  store i32 0, i32* %8, align 4
  br label %75

75:                                               ; preds = %103, %74
  %76 = load i32, i32* %8, align 4
  %77 = load i32, i32* %4, align 4
  %78 = icmp slt i32 %76, %77
  br i1 %78, label %79, label %106

79:                                               ; preds = %75
  %80 = load i32, i32* %6, align 4
  %81 = sext i32 %80 to i64
  %82 = getelementptr inbounds [100 x [100 x i32]], [100 x [100 x i32]]* %9, i64 0, i64 %81
  %83 = load i32, i32* %8, align 4
  %84 = sext i32 %83 to i64
  %85 = getelementptr inbounds [100 x i32], [100 x i32]* %82, i64 0, i64 %84
  %86 = load i32, i32* %85, align 4
  %87 = load i32, i32* %8, align 4
  %88 = sext i32 %87 to i64
  %89 = getelementptr inbounds [100 x [100 x i32]], [100 x [100 x i32]]* %10, i64 0, i64 %88
  %90 = load i32, i32* %7, align 4
  %91 = sext i32 %90 to i64
  %92 = getelementptr inbounds [100 x i32], [100 x i32]* %89, i64 0, i64 %91
  %93 = load i32, i32* %92, align 4
  %94 = mul nsw i32 %86, %93
  %95 = load i32, i32* %6, align 4
  %96 = sext i32 %95 to i64
  %97 = getelementptr inbounds [100 x [100 x i32]], [100 x [100 x i32]]* %11, i64 0, i64 %96
  %98 = load i32, i32* %7, align 4
  %99 = sext i32 %98 to i64
  %100 = getelementptr inbounds [100 x i32], [100 x i32]* %97, i64 0, i64 %99
  %101 = load i32, i32* %100, align 4
  %102 = add nsw i32 %101, %94
  store i32 %102, i32* %100, align 4
  br label %103

103:                                              ; preds = %79
  %104 = load i32, i32* %8, align 4
  %105 = add nsw i32 %104, 1
  store i32 %105, i32* %8, align 4
  br label %75

106:                                              ; preds = %75
  br label %107

107:                                              ; preds = %106
  %108 = load i32, i32* %7, align 4
  %109 = add nsw i32 %108, 1
  store i32 %109, i32* %7, align 4
  br label %70

110:                                              ; preds = %70
  br label %111

111:                                              ; preds = %110
  %112 = load i32, i32* %6, align 4
  %113 = add nsw i32 %112, 1
  store i32 %113, i32* %6, align 4
  br label %65

114:                                              ; preds = %65
  store i32 0, i32* %6, align 4
  br label %115

115:                                              ; preds = %147, %114
  %116 = load i32, i32* %6, align 4
  %117 = load i32, i32* %2, align 4
  %118 = icmp slt i32 %116, %117
  br i1 %118, label %119, label %150

119:                                              ; preds = %115
  store i32 0, i32* %7, align 4
  br label %120

120:                                              ; preds = %134, %119
  %121 = load i32, i32* %7, align 4
  %122 = load i32, i32* %5, align 4
  %123 = sub nsw i32 %122, 1
  %124 = icmp slt i32 %121, %123
  br i1 %124, label %125, label %137

125:                                              ; preds = %120
  %126 = load i32, i32* %6, align 4
  %127 = sext i32 %126 to i64
  %128 = getelementptr inbounds [100 x [100 x i32]], [100 x [100 x i32]]* %11, i64 0, i64 %127
  %129 = load i32, i32* %7, align 4
  %130 = sext i32 %129 to i64
  %131 = getelementptr inbounds [100 x i32], [100 x i32]* %128, i64 0, i64 %130
  %132 = load i32, i32* %131, align 4
  %133 = call i32 (i8*, ...) @printf(i8* getelementptr inbounds ([4 x i8], [4 x i8]* @.str.2, i64 0, i64 0), i32 %132)
  br label %134

134:                                              ; preds = %125
  %135 = load i32, i32* %7, align 4
  %136 = add nsw i32 %135, 1
  store i32 %136, i32* %7, align 4
  br label %120

137:                                              ; preds = %120
  %138 = load i32, i32* %6, align 4
  %139 = sext i32 %138 to i64
  %140 = getelementptr inbounds [100 x [100 x i32]], [100 x [100 x i32]]* %11, i64 0, i64 %139
  %141 = load i32, i32* %5, align 4
  %142 = sub nsw i32 %141, 1
  %143 = sext i32 %142 to i64
  %144 = getelementptr inbounds [100 x i32], [100 x i32]* %140, i64 0, i64 %143
  %145 = load i32, i32* %144, align 4
  %146 = call i32 (i8*, ...) @printf(i8* getelementptr inbounds ([4 x i8], [4 x i8]* @.str.3, i64 0, i64 0), i32 %145)
  br label %147

147:                                              ; preds = %137
  %148 = load i32, i32* %6, align 4
  %149 = add nsw i32 %148, 1
  store i32 %149, i32* %6, align 4
  br label %115

150:                                              ; preds = %115
  ret i32 0
}

; Function Attrs: argmemonly nounwind willreturn
declare void @llvm.memset.p0i8.i64(i8* nocapture writeonly, i8, i64, i1 immarg) #1

declare dso_local i32 @__isoc99_scanf(i8*, ...) #2

declare dso_local i32 @printf(i8*, ...) #2


!llvm.module.flags = !{!0}
!llvm.ident = !{!1}

!0 = !{i32 1, !"wchar_size", i32 4}
!1 = !{!"clang version 10.0.0-4ubuntu1 "}
